target datalayout = "e-m:e-p270:32:32-p271:32:32-p272:64:64-i64:64-i128:128-f80:128-n8:16:32:64-S128"
target triple = "x86_64-unknown-linux-gnu"

%"class.icu_75::LocalPointer.6" = type { %"class.icu_75::LocalPointerBase.7" }
%"class.icu_75::LocalPointerBase.7" = type { ptr }
%"class.icu_75::Hashtable" = type { ptr, %struct.UHashtable }
%struct.UHashtable = type { ptr, ptr, ptr, ptr, ptr, ptr, i32, i32, i32, i32, float, float, i8, i8 }

; Function Attrs: mustprogress nounwind uwtable
define internal noundef signext i8 @_ZL9U_SUCCESS10UErrorCode(i32 noundef %code) #0 {
entry:
  %code.addr = alloca i32, align 4
  store i32 %code, ptr %code.addr, align 4
  %0 = load i32, ptr %code.addr, align 4
  %cmp = icmp sle i32 %0, 0
  %conv = zext i1 %cmp to i8
  ret i8 %conv
}

; Function Attrs: mustprogress nounwind uwtable
define linkonce_odr void @_ZN6icu_7516LocalPointerBaseINS_9HashtableEEC2EPS1_(ptr noundef nonnull align 8 dereferenceable(8) %this, ptr noundef %p) unnamed_addr #0 comdat align 2 {
entry:
  %this.addr = alloca ptr, align 8
  %p.addr = alloca ptr, align 8
  store ptr %this, ptr %this.addr, align 8
  store ptr %p, ptr %p.addr, align 8
  %this1 = load ptr, ptr %this.addr, align 8
  %ptr = getelementptr inbounds %"class.icu_75::LocalPointerBase.7", ptr %this1, i32 0, i32 0
  %0 = load ptr, ptr %p.addr, align 8
  store ptr %0, ptr %ptr, align 8
  ret void
}

; Function Attrs: mustprogress uwtable
define linkonce_odr void @_ZN6icu_759Hashtable4initEPFi8UElementEPFaS1_S1_ES5_R10UErrorCode(ptr noundef nonnull align 8 dereferenceable(88) %this, ptr noundef %keyHash, ptr noundef %keyComp, ptr noundef %valueComp, ptr noundef nonnull align 4 dereferenceable(4) %status) #1 comdat align 2 {
entry:
  %this.addr = alloca ptr, align 8
  %keyHash.addr = alloca ptr, align 8
  %keyComp.addr = alloca ptr, align 8
  %valueComp.addr = alloca ptr, align 8
  %status.addr = alloca ptr, align 8
  store ptr %this, ptr %this.addr, align 8
  store ptr %keyHash, ptr %keyHash.addr, align 8
  store ptr %keyComp, ptr %keyComp.addr, align 8
  store ptr %valueComp, ptr %valueComp.addr, align 8
  store ptr %status, ptr %status.addr, align 8
  %this1 = load ptr, ptr %this.addr, align 8
  %0 = load ptr, ptr %status.addr, align 8
  %1 = load i32, ptr %0, align 4
  %call = call noundef signext i8 @_ZL9U_FAILURE10UErrorCode(i32 noundef %1)
  %tobool = icmp ne i8 %call, 0
  br i1 %tobool, label %if.then, label %if.end

if.then:                                          ; preds = %entry
  br label %if.end9

if.end:                                           ; preds = %entry
  %hashObj = getelementptr inbounds %"class.icu_75::Hashtable", ptr %this1, i32 0, i32 1
  %2 = load ptr, ptr %keyHash.addr, align 8
  %3 = load ptr, ptr %keyComp.addr, align 8
  %4 = load ptr, ptr %valueComp.addr, align 8
  %5 = load ptr, ptr %status.addr, align 8
  %call2 = call ptr @uhash_init_75(ptr noundef %hashObj, ptr noundef %2, ptr noundef %3, ptr noundef %4, ptr noundef %5)
  %6 = load ptr, ptr %status.addr, align 8
  %7 = load i32, ptr %6, align 4
  %call3 = call noundef signext i8 @_ZL9U_SUCCESS10UErrorCode(i32 noundef %7)
  %tobool4 = icmp ne i8 %call3, 0
  br i1 %tobool4, label %if.then5, label %if.end9

if.then5:                                         ; preds = %if.end
  %hashObj6 = getelementptr inbounds %"class.icu_75::Hashtable", ptr %this1, i32 0, i32 1
  %hash = getelementptr inbounds %"class.icu_75::Hashtable", ptr %this1, i32 0, i32 0
  store ptr %hashObj6, ptr %hash, align 8
  %hash7 = getelementptr inbounds %"class.icu_75::Hashtable", ptr %this1, i32 0, i32 0
  %8 = load ptr, ptr %hash7, align 8
  %call8 = call ptr @uhash_setKeyDeleter_75(ptr noundef %8, ptr noundef @uprv_deleteUObject_75)
  br label %if.end9

if.end9:                                          ; preds = %if.then5, %if.end, %if.then
  ret void
}

; Function Attrs: mustprogress nounwind uwtable
define linkonce_odr noundef ptr @_ZN6icu_7516LocalPointerBaseINS_9HashtableEE6orphanEv(ptr noundef nonnull align 8 dereferenceable(8) %this) #0 comdat align 2 {
entry:
  %this.addr = alloca ptr, align 8
  %p = alloca ptr, align 8
  store ptr %this, ptr %this.addr, align 8
  %this1 = load ptr, ptr %this.addr, align 8
  %ptr = getelementptr inbounds %"class.icu_75::LocalPointerBase.7", ptr %this1, i32 0, i32 0
  %0 = load ptr, ptr %ptr, align 8
  store ptr %0, ptr %p, align 8
  %ptr2 = getelementptr inbounds %"class.icu_75::LocalPointerBase.7", ptr %this1, i32 0, i32 0
  store ptr null, ptr %ptr2, align 8
  %1 = load ptr, ptr %p, align 8
  ret ptr %1
}

; Function Attrs: mustprogress uwtable
define linkonce_odr noundef ptr @_ZN6icu_759Hashtable18setValueComparatorEPFa8UElementS1_E(ptr noundef nonnull align 8 dereferenceable(88) %this, ptr noundef %valueComp) #1 comdat align 2 {
entry:
  %this.addr = alloca ptr, align 8
  %valueComp.addr = alloca ptr, align 8
  store ptr %this, ptr %this.addr, align 8
  store ptr %valueComp, ptr %valueComp.addr, align 8
  %this1 = load ptr, ptr %this.addr, align 8
  %hash = getelementptr inbounds %"class.icu_75::Hashtable", ptr %this1, i32 0, i32 0
  %0 = load ptr, ptr %hash, align 8
  %1 = load ptr, ptr %valueComp.addr, align 8
  %call = call ptr @uhash_setValueComparator_75(ptr noundef %0, ptr noundef %1)
  ret ptr %call
}

; Function Attrs: mustprogress nounwind uwtable
define linkonce_odr noundef ptr @_ZNK6icu_7516LocalPointerBaseINS_9HashtableEEptEv(ptr noundef nonnull align 8 dereferenceable(8) %this) #0 comdat align 2 {
entry:
  %this.addr = alloca ptr, align 8
  store ptr %this, ptr %this.addr, align 8
  %this1 = load ptr, ptr %this.addr, align 8
  %ptr = getelementptr inbounds %"class.icu_75::LocalPointerBase.7", ptr %this1, i32 0, i32 0
  %0 = load ptr, ptr %ptr, align 8
  ret ptr %0
}

; Function Attrs: mustprogress uwtable
define linkonce_odr void @_ZN6icu_7512LocalPointerINS_9HashtableEEC2EPS1_R10UErrorCode(ptr noundef nonnull align 8 dereferenceable(8) %this, ptr noundef %p, ptr noundef nonnull align 4 dereferenceable(4) %errorCode) unnamed_addr #1 comdat align 2 {
entry:
  %this.addr = alloca ptr, align 8
  %p.addr = alloca ptr, align 8
  %errorCode.addr = alloca ptr, align 8
  store ptr %this, ptr %this.addr, align 8
  store ptr %p, ptr %p.addr, align 8
  store ptr %errorCode, ptr %errorCode.addr, align 8
  %this1 = load ptr, ptr %this.addr, align 8
  %0 = load ptr, ptr %p.addr, align 8
  call void @_ZN6icu_7516LocalPointerBaseINS_9HashtableEEC2EPS1_(ptr noundef nonnull align 8 dereferenceable(8) %this1, ptr noundef %0)
  %1 = load ptr, ptr %p.addr, align 8
  %cmp = icmp eq ptr %1, null
  br i1 %cmp, label %land.lhs.true, label %if.end

land.lhs.true:                                    ; preds = %entry
  %2 = load ptr, ptr %errorCode.addr, align 8
  %3 = load i32, ptr %2, align 4
  %call = call noundef signext i8 @_ZL9U_SUCCESS10UErrorCode(i32 noundef %3)
  %tobool = icmp ne i8 %call, 0
  br i1 %tobool, label %if.then, label %if.end

if.then:                                          ; preds = %land.lhs.true
  %4 = load ptr, ptr %errorCode.addr, align 8
  store i32 7, ptr %4, align 4
  br label %if.end

if.end:                                           ; preds = %if.then, %land.lhs.true, %entry
  ret void
}

; Function Attrs: mustprogress uwtable
define linkonce_odr void @_ZN6icu_759HashtableC2EaR10UErrorCode(ptr noundef nonnull align 8 dereferenceable(88) %this, i8 noundef signext %ignoreKeyCase, ptr noundef nonnull align 4 dereferenceable(4) %status) unnamed_addr #1 comdat align 2 {
entry:
  %this.addr = alloca ptr, align 8
  %ignoreKeyCase.addr = alloca i8, align 1
  %status.addr = alloca ptr, align 8
  store ptr %this, ptr %this.addr, align 8
  store i8 %ignoreKeyCase, ptr %ignoreKeyCase.addr, align 1
  store ptr %status, ptr %status.addr, align 8
  %this1 = load ptr, ptr %this.addr, align 8
  %hash = getelementptr inbounds %"class.icu_75::Hashtable", ptr %this1, i32 0, i32 0
  store ptr null, ptr %hash, align 8
  %0 = load i8, ptr %ignoreKeyCase.addr, align 1
  %tobool = icmp ne i8 %0, 0
  br i1 %tobool, label %cond.true, label %cond.false

cond.true:                                        ; preds = %entry
  br label %cond.end

cond.false:                                       ; preds = %entry
  br label %cond.end

cond.end:                                         ; preds = %cond.false, %cond.true
  %cond-lvalue = phi ptr [ @uhash_hashCaselessUnicodeString_75, %cond.true ], [ @uhash_hashUnicodeString_75, %cond.false ]
  %1 = load i8, ptr %ignoreKeyCase.addr, align 1
  %tobool2 = icmp ne i8 %1, 0
  br i1 %tobool2, label %cond.true3, label %cond.false4

cond.true3:                                       ; preds = %cond.end
  br label %cond.end5

cond.false4:                                      ; preds = %cond.end
  br label %cond.end5

cond.end5:                                        ; preds = %cond.false4, %cond.true3
  %cond-lvalue6 = phi ptr [ @uhash_compareCaselessUnicodeString_75, %cond.true3 ], [ @uhash_compareUnicodeString_75, %cond.false4 ]
  %2 = load ptr, ptr %status.addr, align 8
  call void @_ZN6icu_759Hashtable4initEPFi8UElementEPFaS1_S1_ES5_R10UErrorCode(ptr noundef nonnull align 8 dereferenceable(88) %this1, ptr noundef %cond-lvalue, ptr noundef %cond-lvalue6, ptr noundef null, ptr noundef nonnull align 4 dereferenceable(4) %2)
  ret void
}

; Function Attrs: mustprogress nounwind uwtable
define internal noundef signext i8 @_ZL9U_FAILURE10UErrorCode(i32 noundef %code) #0 {
entry:
  %code.addr = alloca i32, align 4
  store i32 %code, ptr %code.addr, align 4
  %0 = load i32, ptr %code.addr, align 4
  %cmp = icmp sgt i32 %0, 0
  %conv = zext i1 %cmp to i8
  ret i8 %conv
}

; Function Attrs: mustprogress uwtable
define noundef ptr @_ZN6icu_7518CurrencyPluralInfo8initHashER10UErrorCode(ptr noundef nonnull align 8 dereferenceable(36) %this, ptr noundef nonnull align 4 dereferenceable(4) %status) #1 align 2 personality ptr @__gxx_personality_v0 {
entry:
  %retval = alloca ptr, align 8
  %this.addr = alloca ptr, align 8
  %status.addr = alloca ptr, align 8
  %hTable = alloca %"class.icu_75::LocalPointer.6", align 8
  %saved-rvalue = alloca ptr, align 8
  %cleanup.cond = alloca i1, align 1
  %exn.slot = alloca ptr, align 8
  %ehselector.slot = alloca i32, align 4
  %cleanup.dest.slot = alloca i32, align 4
  store ptr %this, ptr %this.addr, align 8
  store ptr %status, ptr %status.addr, align 8
  %0 = load ptr, ptr %status.addr, align 8
  %1 = load i32, ptr %0, align 4
  %call = call noundef signext i8 @_ZL9U_FAILURE10UErrorCode(i32 noundef %1)
  %tobool = icmp ne i8 %call, 0
  br i1 %tobool, label %if.then, label %if.end

if.then:                                          ; preds = %entry
  store ptr null, ptr %retval, align 8
  br label %return

if.end:                                           ; preds = %entry
  %call2 = call noundef ptr @_ZN6icu_757UMemorynwEm(i64 noundef 88) #7
  %new.isnull = icmp eq ptr %call2, null
  store i1 false, ptr %cleanup.cond, align 1
  br i1 %new.isnull, label %new.cont, label %new.notnull

new.notnull:                                      ; preds = %if.end
  store ptr %call2, ptr %saved-rvalue, align 8
  store i1 true, ptr %cleanup.cond, align 1
  %2 = load ptr, ptr %status.addr, align 8
  invoke void @_ZN6icu_759HashtableC2EaR10UErrorCode(ptr noundef nonnull align 8 dereferenceable(88) %call2, i8 noundef signext 1, ptr noundef nonnull align 4 dereferenceable(4) %2)
          to label %invoke.cont unwind label %lpad

invoke.cont:                                      ; preds = %new.notnull
  br label %new.cont

new.cont:                                         ; preds = %invoke.cont, %if.end
  %3 = phi ptr [ %call2, %invoke.cont ], [ null, %if.end ]
  %4 = load ptr, ptr %status.addr, align 8
  call void @_ZN6icu_7512LocalPointerINS_9HashtableEEC2EPS1_R10UErrorCode(ptr noundef nonnull align 8 dereferenceable(8) %hTable, ptr noundef %3, ptr noundef nonnull align 4 dereferenceable(4) %4)
  %5 = load ptr, ptr %status.addr, align 8
  %6 = load i32, ptr %5, align 4
  %call5 = invoke noundef signext i8 @_ZL9U_FAILURE10UErrorCode(i32 noundef %6)
          to label %invoke.cont4 unwind label %lpad3

invoke.cont4:                                     ; preds = %new.cont
  %tobool6 = icmp ne i8 %call5, 0
  br i1 %tobool6, label %if.then7, label %if.end8

if.then7:                                         ; preds = %invoke.cont4
  store ptr null, ptr %retval, align 8
  store i32 1, ptr %cleanup.dest.slot, align 4
  br label %cleanup

lpad:                                             ; preds = %new.notnull
  %7 = landingpad { ptr, i32 }
          cleanup
  %8 = extractvalue { ptr, i32 } %7, 0
  store ptr %8, ptr %exn.slot, align 8
  %9 = extractvalue { ptr, i32 } %7, 1
  store i32 %9, ptr %ehselector.slot, align 4
  %cleanup.is_active = load i1, ptr %cleanup.cond, align 1
  br i1 %cleanup.is_active, label %cleanup.action, label %cleanup.done

cleanup.action:                                   ; preds = %lpad
  %10 = load ptr, ptr %saved-rvalue, align 8
  call void @_ZN6icu_757UMemorydlEPv(ptr noundef %10) #7
  br label %cleanup.done

cleanup.done:                                     ; preds = %cleanup.action, %lpad
  br label %eh.resume

lpad3:                                            ; preds = %invoke.cont11, %invoke.cont9, %if.end8, %new.cont
  %11 = landingpad { ptr, i32 }
          cleanup
  %12 = extractvalue { ptr, i32 } %11, 0
  store ptr %12, ptr %exn.slot, align 8
  %13 = extractvalue { ptr, i32 } %11, 1
  store i32 %13, ptr %ehselector.slot, align 4
  call void @_ZN6icu_7512LocalPointerINS_9HashtableEED2Ev(ptr noundef nonnull align 8 dereferenceable(8) %hTable) #7
  br label %eh.resume

if.end8:                                          ; preds = %invoke.cont4
  %call10 = invoke noundef ptr @_ZNK6icu_7516LocalPointerBaseINS_9HashtableEEptEv(ptr noundef nonnull align 8 dereferenceable(8) %hTable)
          to label %invoke.cont9 unwind label %lpad3

invoke.cont9:                                     ; preds = %if.end8
  %call12 = invoke noundef ptr @_ZN6icu_759Hashtable18setValueComparatorEPFa8UElementS1_E(ptr noundef nonnull align 8 dereferenceable(88) %call10, ptr noundef @_ZN6icu_75L15ValueComparatorE8UElementS0_)
          to label %invoke.cont11 unwind label %lpad3

invoke.cont11:                                    ; preds = %invoke.cont9
  %call14 = invoke noundef ptr @_ZN6icu_7516LocalPointerBaseINS_9HashtableEE6orphanEv(ptr noundef nonnull align 8 dereferenceable(8) %hTable)
          to label %invoke.cont13 unwind label %lpad3

invoke.cont13:                                    ; preds = %invoke.cont11
  store ptr %call14, ptr %retval, align 8
  store i32 1, ptr %cleanup.dest.slot, align 4
  br label %cleanup

cleanup:                                          ; preds = %invoke.cont13, %if.then7
  call void @_ZN6icu_7512LocalPointerINS_9HashtableEED2Ev(ptr noundef nonnull align 8 dereferenceable(8) %hTable) #7
  br label %return

return:                                           ; preds = %cleanup, %if.then
  %14 = load ptr, ptr %retval, align 8
  ret ptr %14

eh.resume:                                        ; preds = %lpad3, %cleanup.done
  %exn = load ptr, ptr %exn.slot, align 8
  %sel = load i32, ptr %ehselector.slot, align 4
  %lpad.val = insertvalue { ptr, i32 } poison, ptr %exn, 0
  %lpad.val15 = insertvalue { ptr, i32 } %lpad.val, i32 %sel, 1
  resume { ptr, i32 } %lpad.val15
}