; Function Attrs: mustprogress uwtable
define noundef ptr @_ZN6icu_7518CurrencyPluralInfo8initHashER10UErrorCode(ptr nocapture nonnull readnone align 8 %this, ptr noundef nonnull align 4 dereferenceable(4) %status) local_unnamed_addr #1 align 2 personality ptr @__gxx_personality_v0 {
entry:
  %hTable = alloca %"class.icu_75::LocalPointer.6", align 8
  %0 = load i32, ptr %status, align 4
  %cmp.i = icmp slt i32 %0, 1
  br i1 %cmp.i, label %if.end, label %return

if.end:                                           ; preds = %entry
  %call2 = tail call noundef ptr @_ZN6icu_757UMemorynwEm(i64 noundef 88) #10
  %new.isnull = icmp eq ptr %call2, null
  br i1 %new.isnull, label %new.cont, label %new.notnull

new.notnull:                                      ; preds = %if.end
  store ptr null, ptr %call2, align 8
  %1 = load i32, ptr %status, align 4
  %cmp.i.i.i = icmp slt i32 %1, 1
  br i1 %cmp.i.i.i, label %if.end.i.i, label %delete.notnull.i

if.end.i.i:                                       ; preds = %new.notnull
  %hashObj.i.i = getelementptr inbounds i8, ptr %call2, i64 8
  %call2.i.i5 = invoke ptr @uhash_init_75(ptr noundef nonnull %hashObj.i.i, ptr noundef nonnull @uhash_hashCaselessUnicodeString_75, ptr noundef nonnull @uhash_compareCaselessUnicodeString_75, ptr noundef null, ptr noundef nonnull %status)
          to label %call2.i.i.noexc unwind label %lpad

call2.i.i.noexc:                                  ; preds = %if.end.i.i
  %2 = load i32, ptr %status, align 4
  %cmp.i3.i.i = icmp sgt i32 %2, 0
  br i1 %cmp.i3.i.i, label %delete.notnull.i, label %if.then5.i.i

if.then5.i.i:                                     ; preds = %call2.i.i.noexc
  store ptr %hashObj.i.i, ptr %call2, align 8
  %call8.i.i6 = invoke ptr @uhash_setKeyDeleter_75(ptr noundef nonnull %hashObj.i.i, ptr noundef nonnull @uprv_deleteUObject_75)
          to label %_ZN6icu_7512LocalPointerINS_9HashtableEEC2EPS1_R10UErrorCode.exit unwind label %lpad

new.cont:                                         ; preds = %if.end
  %3 = load i32, ptr %status, align 4
  %cmp.i.i = icmp sgt i32 %3, 0
  br i1 %cmp.i.i, label %return, label %if.then.i

if.then.i:                                        ; preds = %new.cont
  store i32 7, ptr %status, align 4
  br label %return

_ZN6icu_7512LocalPointerINS_9HashtableEEC2EPS1_R10UErrorCode.exit: ; preds = %if.then5.i.i
  %.pre.pre = load i32, ptr %status, align 4
  %4 = icmp slt i32 %.pre.pre, 1
  store ptr %call2, ptr %hTable, align 8
  br i1 %4, label %if.end8, label %delete.notnull.i

lpad:                                             ; preds = %if.then5.i.i, %if.end.i.i
  %5 = landingpad { ptr, i32 }
          cleanup
  tail call void @_ZN6icu_757UMemorydlEPv(ptr noundef nonnull %call2) #10
  br label %eh.resume

lpad3:                                            ; preds = %if.end8
  %6 = landingpad { ptr, i32 }
          cleanup
  call void @_ZN6icu_7512LocalPointerINS_9HashtableEED2Ev(ptr noundef nonnull align 8 dereferenceable(8) %hTable) #10
  br label %eh.resume

if.end8:                                          ; preds = %_ZN6icu_7512LocalPointerINS_9HashtableEEC2EPS1_R10UErrorCode.exit
  %7 = load ptr, ptr %call2, align 8
  %call.i10 = invoke noundef ptr @uhash_setValueComparator_75(ptr noundef %7, ptr noundef nonnull @_ZN6icu_75L15ValueComparatorE8UElementS0_)
          to label %return unwind label %lpad3

delete.notnull.i:                                 ; preds = %call2.i.i.noexc, %new.notnull, %_ZN6icu_7512LocalPointerINS_9HashtableEEC2EPS1_R10UErrorCode.exit
  %8 = load ptr, ptr %call2, align 8
  %cmp.not.i.i = icmp eq ptr %8, null
  br i1 %cmp.not.i.i, label %_ZN6icu_759HashtableD2Ev.exit.i, label %if.then.i.i

if.then.i.i:                                      ; preds = %delete.notnull.i
  invoke void @uhash_close_75(ptr noundef nonnull %8)
          to label %_ZN6icu_759HashtableD2Ev.exit.i unwind label %terminate.lpad.i.i

terminate.lpad.i.i:                               ; preds = %if.then.i.i
  %9 = landingpad { ptr, i32 }
          catch ptr null
  %10 = extractvalue { ptr, i32 } %9, 0
  tail call void @__clang_call_terminate(ptr %10) #11
  unreachable

_ZN6icu_759HashtableD2Ev.exit.i:                  ; preds = %if.then.i.i, %delete.notnull.i
  tail call void @_ZN6icu_757UMemorydlEPv(ptr noundef nonnull %call2) #10
  br label %return

return:                                           ; preds = %if.end8, %if.then.i, %new.cont, %_ZN6icu_759HashtableD2Ev.exit.i, %entry
  %retval.1 = phi ptr [ null, %entry ], [ null, %_ZN6icu_759HashtableD2Ev.exit.i ], [ null, %new.cont ], [ null, %if.then.i ], [ %call2, %if.end8 ]
  ret ptr %retval.1

eh.resume:                                        ; preds = %lpad, %lpad3
  %.pn = phi { ptr, i32 } [ %6, %lpad3 ], [ %5, %lpad ]
  resume { ptr, i32 } %.pn
}